target datalayout = "e-m:e-p270:32:32-p271:32:32-p272:64:64-i64:64-i128:128-f80:128-n8:16:32:64-S128"
target triple = "x86_64-pc-linux-gnu"

%"class.std::__cxx11::basic_string" = type { %"struct.std::__cxx11::basic_string<char>::_Alloc_hider", i64, %union.anon }
%"struct.std::__cxx11::basic_string<char>::_Alloc_hider" = type { ptr }
%union.anon = type { i64, [8 x i8] }
%"struct.clang::PrintingPolicy" = type { i64, ptr }
%"class.clang::LangOptions" = type <{ %"class.clang::LangOptionsBase.base", [2 x i8], i32, %"struct.clang::SanitizerSet", i8, [7 x i8], %"class.std::vector.388", %"class.std::vector.388", %"class.std::vector.388", %"class.std::vector.388", %"class.std::vector.388", %"class.clang::ObjCRuntime", i32, %"class.std::__cxx11::basic_string", %"class.std::__cxx11::basic_string", %"class.std::__cxx11::basic_string", %"class.std::__cxx11::basic_string", %"class.std::vector.388", %"struct.clang::CommentOptions", %"class.std::vector.388", %"class.std::map", %"class.std::vector.396", %"class.std::__cxx11::basic_string", %"class.std::__cxx11::basic_string", %"class.std::optional.401", i8, [3 x i8], i32, i32, [4 x i8], %"class.std::vector.388", %"class.std::__cxx11::basic_string", i8, i8, [6 x i8], %"class.std::__cxx11::basic_string", i8, [7 x i8] }>
%"class.clang::LangOptionsBase.base" = type <{ i64, i64, i64, i64, i64, i64, i64, i64, i64, i64, i64, i64, i64, i64, i64, i64, i64, i64, i64, i64, i64, i64, i64, i64, i64, i16 }>
%"struct.clang::SanitizerSet" = type { %"class.clang::SanitizerMask" }
%"class.clang::SanitizerMask" = type { [2 x i64] }
%"class.clang::ObjCRuntime" = type <{ i32, %"class.llvm::VersionTuple" }>
%"class.llvm::VersionTuple" = type { i64, i64 }
%"struct.clang::CommentOptions" = type <{ %"class.std::vector.388", i8, [7 x i8] }>
%"class.std::map" = type { %"class.std::_Rb_tree" }
%"class.std::_Rb_tree" = type { %"struct.std::_Rb_tree<std::__cxx11::basic_string<char>, std::pair<const std::__cxx11::basic_string<char>, std::__cxx11::basic_string<char>>, std::_Select1st<std::pair<const std::__cxx11::basic_string<char>, std::__cxx11::basic_string<char>>>, std::greater<std::__cxx11::basic_string<char>>>::_Rb_tree_impl" }
%"struct.std::_Rb_tree<std::__cxx11::basic_string<char>, std::pair<const std::__cxx11::basic_string<char>, std::__cxx11::basic_string<char>>, std::_Select1st<std::pair<const std::__cxx11::basic_string<char>, std::__cxx11::basic_string<char>>>, std::greater<std::__cxx11::basic_string<char>>>::_Rb_tree_impl" = type { [8 x i8], %"struct.std::_Rb_tree_header" }
%"struct.std::_Rb_tree_header" = type { %"struct.std::_Rb_tree_node_base", i64 }
%"struct.std::_Rb_tree_node_base" = type { i32, ptr, ptr, ptr }
%"class.std::vector.396" = type { %"struct.std::_Vector_base.397" }
%"struct.std::_Vector_base.397" = type { %"struct.std::_Vector_base<llvm::Triple, std::allocator<llvm::Triple>>::_Vector_impl" }
%"struct.std::_Vector_base<llvm::Triple, std::allocator<llvm::Triple>>::_Vector_impl" = type { %"struct.std::_Vector_base<llvm::Triple, std::allocator<llvm::Triple>>::_Vector_impl_data" }
%"struct.std::_Vector_base<llvm::Triple, std::allocator<llvm::Triple>>::_Vector_impl_data" = type { ptr, ptr, ptr }
%"class.std::optional.401" = type { %"struct.std::_Optional_base.402" }
%"struct.std::_Optional_base.402" = type { %"struct.std::_Optional_payload.404" }
%"struct.std::_Optional_payload.404" = type { %"struct.std::_Optional_payload_base.base", [3 x i8] }
%"struct.std::_Optional_payload_base.base" = type <{ %"union.std::_Optional_payload_base<clang::TargetCXXABI::Kind>::_Storage", i8 }>
%"union.std::_Optional_payload_base<clang::TargetCXXABI::Kind>::_Storage" = type { i32 }
%"class.std::vector.388" = type { %"struct.std::_Vector_base.389" }
%"struct.std::_Vector_base.389" = type { %"struct.std::_Vector_base<std::__cxx11::basic_string<char>, std::allocator<std::__cxx11::basic_string<char>>>::_Vector_impl" }
%"struct.std::_Vector_base<std::__cxx11::basic_string<char>, std::allocator<std::__cxx11::basic_string<char>>>::_Vector_impl" = type { %"struct.std::_Vector_base<std::__cxx11::basic_string<char>, std::allocator<std::__cxx11::basic_string<char>>>::_Vector_impl_data" }
%"struct.std::_Vector_base<std::__cxx11::basic_string<char>, std::allocator<std::__cxx11::basic_string<char>>>::_Vector_impl_data" = type { ptr, ptr, ptr }
%"class.clang::LangOptionsBase" = type <{ i64, i64, i64, i64, i64, i64, i64, i64, i64, i64, i64, i64, i64, i64, i64, i64, i64, i64, i64, i64, i64, i64, i64, i64, i64, i16, [2 x i8] }>

; Function Attrs: mustprogress nounwind uwtable
define linkonce_odr hidden void @_ZN5clang14PrintingPolicyC2ERKNS_11LangOptionsE(ptr noundef nonnull align 8 dereferenceable(16) %0, ptr noundef nonnull align 8 dereferenceable(841) %1) unnamed_addr #0 comdat align 2 {
  %3 = alloca ptr, align 8
  %4 = alloca ptr, align 8
  store ptr %0, ptr %3, align 8
  store ptr %1, ptr %4, align 8
  %5 = load ptr, ptr %3, align 8
  %6 = load i64, ptr %5, align 8
  %7 = and i64 %6, -256
  %8 = or i64 %7, 2
  store i64 %8, ptr %5, align 8
  %9 = load i64, ptr %5, align 8
  %10 = and i64 %9, -257
  %11 = or i64 %10, 0
  store i64 %11, ptr %5, align 8
  %12 = load ptr, ptr %4, align 8
  %13 = load i64, ptr %12, align 8
  %14 = lshr i64 %13, 11
  %15 = and i64 %14, 1
  %16 = trunc i64 %15 to i32
  %17 = zext i32 %16 to i64
  %18 = load i64, ptr %5, align 8
  %19 = and i64 %17, 1
  %20 = shl i64 %19, 9
  %21 = and i64 %18, -513
  %22 = or i64 %21, %20
  store i64 %22, ptr %5, align 8
  %23 = load i64, ptr %5, align 8
  %24 = and i64 %23, -1025
  %25 = or i64 %24, 0
  store i64 %25, ptr %5, align 8
  %26 = load i64, ptr %5, align 8
  %27 = and i64 %26, -2049
  %28 = or i64 %27, 0
  store i64 %28, ptr %5, align 8
  %29 = load i64, ptr %5, align 8
  %30 = and i64 %29, -4097
  %31 = or i64 %30, 0
  store i64 %31, ptr %5, align 8
  %32 = load i64, ptr %5, align 8
  %33 = and i64 %32, -8193
  %34 = or i64 %33, 8192
  store i64 %34, ptr %5, align 8
  %35 = load i64, ptr %5, align 8
  %36 = and i64 %35, -16385
  %37 = or i64 %36, 0
  store i64 %37, ptr %5, align 8
  %38 = load i64, ptr %5, align 8
  %39 = and i64 %38, -32769
  %40 = or i64 %39, 0
  store i64 %40, ptr %5, align 8
  %41 = load i64, ptr %5, align 8
  %42 = and i64 %41, -65537
  %43 = or i64 %42, 0
  store i64 %43, ptr %5, align 8
  %44 = load i64, ptr %5, align 8
  %45 = and i64 %44, -131073
  %46 = or i64 %45, 131072
  store i64 %46, ptr %5, align 8
  %47 = load i64, ptr %5, align 8
  %48 = and i64 %47, -262145
  %49 = or i64 %48, 0
  store i64 %49, ptr %5, align 8
  %50 = load i64, ptr %5, align 8
  %51 = and i64 %50, -524289
  %52 = or i64 %51, 0
  store i64 %52, ptr %5, align 8
  %53 = load i64, ptr %5, align 8
  %54 = and i64 %53, -1048577
  %55 = or i64 %54, 0
  store i64 %55, ptr %5, align 8
  %56 = load i64, ptr %5, align 8
  %57 = and i64 %56, -2097153
  %58 = or i64 %57, 2097152
  store i64 %58, ptr %5, align 8
  %59 = load ptr, ptr %4, align 8
  %60 = load i64, ptr %59, align 8
  %61 = lshr i64 %60, 26
  %62 = and i64 %61, 1
  %63 = trunc i64 %62 to i32
  %64 = zext i32 %63 to i64
  %65 = load i64, ptr %5, align 8
  %66 = and i64 %64, 1
  %67 = shl i64 %66, 22
  %68 = and i64 %65, -4194305
  %69 = or i64 %68, %67
  store i64 %69, ptr %5, align 8
  %70 = load ptr, ptr %4, align 8
  %71 = load i64, ptr %70, align 8
  %72 = lshr i64 %71, 12
  %73 = and i64 %72, 1
  %74 = trunc i64 %73 to i32
  %75 = icmp ne i32 %74, 0
  br i1 %75, label %83, label %76

76:                                               ; preds = %2
  %77 = load ptr, ptr %4, align 8
  %78 = load i64, ptr %77, align 8
  %79 = lshr i64 %78, 3
  %80 = and i64 %79, 1
  %81 = trunc i64 %80 to i32
  %82 = icmp ne i32 %81, 0
  br label %83

83:                                               ; preds = %76, %2
  %84 = phi i1 [ true, %2 ], [ %82, %76 ]
  %85 = zext i1 %84 to i32
  %86 = zext i32 %85 to i64
  %87 = load i64, ptr %5, align 8
  %88 = and i64 %86, 1
  %89 = shl i64 %88, 23
  %90 = and i64 %87, -8388609
  %91 = or i64 %90, %89
  store i64 %91, ptr %5, align 8
  %92 = load ptr, ptr %4, align 8
  %93 = load i64, ptr %92, align 8
  %94 = lshr i64 %93, 11
  %95 = and i64 %94, 1
  %96 = trunc i64 %95 to i32
  %97 = zext i32 %96 to i64
  %98 = load i64, ptr %5, align 8
  %99 = and i64 %97, 1
  %100 = shl i64 %99, 24
  %101 = and i64 %98, -16777217
  %102 = or i64 %101, %100
  store i64 %102, ptr %5, align 8
  %103 = load ptr, ptr %4, align 8
  %104 = load i64, ptr %103, align 8
  %105 = and i64 %104, 1
  %106 = trunc i64 %105 to i32
  %107 = zext i32 %106 to i64
  %108 = load i64, ptr %5, align 8
  %109 = and i64 %107, 1
  %110 = shl i64 %109, 25
  %111 = and i64 %108, -33554433
  %112 = or i64 %111, %110
  store i64 %112, ptr %5, align 8
  %113 = load ptr, ptr %4, align 8
  %114 = load i64, ptr %113, align 8
  %115 = lshr i64 %114, 12
  %116 = and i64 %115, 1
  %117 = trunc i64 %116 to i32
  %118 = zext i32 %117 to i64
  %119 = load i64, ptr %5, align 8
  %120 = and i64 %118, 1
  %121 = shl i64 %120, 26
  %122 = and i64 %119, -67108865
  %123 = or i64 %122, %121
  store i64 %123, ptr %5, align 8
  %124 = load ptr, ptr %4, align 8
  %125 = load i64, ptr %124, align 8
  %126 = lshr i64 %125, 1
  %127 = and i64 %126, 1
  %128 = trunc i64 %127 to i32
  %129 = zext i32 %128 to i64
  %130 = load i64, ptr %5, align 8
  %131 = and i64 %129, 1
  %132 = shl i64 %131, 27
  %133 = and i64 %130, -134217729
  %134 = or i64 %133, %132
  store i64 %134, ptr %5, align 8
  %135 = load ptr, ptr %4, align 8
  %136 = load i64, ptr %135, align 8
  %137 = lshr i64 %136, 11
  %138 = and i64 %137, 1
  %139 = trunc i64 %138 to i32
  %140 = icmp ne i32 %139, 0
  %141 = xor i1 %140, true
  %142 = zext i1 %141 to i32
  %143 = zext i32 %142 to i64
  %144 = load i64, ptr %5, align 8
  %145 = and i64 %143, 1
  %146 = shl i64 %145, 28
  %147 = and i64 %144, -268435457
  %148 = or i64 %147, %146
  store i64 %148, ptr %5, align 8
  %149 = load ptr, ptr %4, align 8
  %150 = load i64, ptr %149, align 8
  %151 = lshr i64 %150, 12
  %152 = and i64 %151, 1
  %153 = trunc i64 %152 to i32
  %154 = icmp ne i32 %153, 0
  %155 = xor i1 %154, true
  %156 = zext i1 %155 to i32
  %157 = zext i32 %156 to i64
  %158 = load i64, ptr %5, align 8
  %159 = and i64 %157, 1
  %160 = shl i64 %159, 29
  %161 = and i64 %158, -536870913
  %162 = or i64 %161, %160
  store i64 %162, ptr %5, align 8
  %163 = load i64, ptr %5, align 8
  %164 = and i64 %163, -1073741825
  %165 = or i64 %164, 0
  store i64 %165, ptr %5, align 8
  %166 = load i64, ptr %5, align 8
  %167 = and i64 %166, -2147483649
  %168 = or i64 %167, 0
  store i64 %168, ptr %5, align 8
  %169 = load ptr, ptr %4, align 8
  %170 = load i64, ptr %169, align 8
  %171 = lshr i64 %170, 27
  %172 = and i64 %171, 1
  %173 = trunc i64 %172 to i32
  %174 = zext i32 %173 to i64
  %175 = load i64, ptr %5, align 8
  %176 = and i64 %174, 1
  %177 = shl i64 %176, 32
  %178 = and i64 %175, -4294967297
  %179 = or i64 %178, %177
  store i64 %179, ptr %5, align 8
  %180 = load ptr, ptr %4, align 8
  %181 = load i64, ptr %180, align 8
  %182 = lshr i64 %181, 7
  %183 = and i64 %182, 1
  %184 = trunc i64 %183 to i32
  %185 = icmp ne i32 %184, 0
  br i1 %185, label %186, label %194

186:                                              ; preds = %83
  %187 = load ptr, ptr %4, align 8
  %188 = load i64, ptr %187, align 8
  %189 = lshr i64 %188, 28
  %190 = and i64 %189, 1
  %191 = trunc i64 %190 to i32
  %192 = icmp ne i32 %191, 0
  %193 = xor i1 %192, true
  br label %194

194:                                              ; preds = %186, %83
  %195 = phi i1 [ false, %83 ], [ %193, %186 ]
  %196 = zext i1 %195 to i32
  %197 = zext i32 %196 to i64
  %198 = load i64, ptr %5, align 8
  %199 = and i64 %197, 1
  %200 = shl i64 %199, 33
  %201 = and i64 %198, -8589934593
  %202 = or i64 %201, %200
  store i64 %202, ptr %5, align 8
  %203 = load i64, ptr %5, align 8
  %204 = and i64 %203, -17179869185
  %205 = or i64 %204, 17179869184
  store i64 %205, ptr %5, align 8
  %206 = load i64, ptr %5, align 8
  %207 = and i64 %206, -34359738369
  %208 = or i64 %207, 0
  store i64 %208, ptr %5, align 8
  %209 = load i64, ptr %5, align 8
  %210 = and i64 %209, -68719476737
  %211 = or i64 %210, 0
  store i64 %211, ptr %5, align 8
  %212 = load i64, ptr %5, align 8
  %213 = and i64 %212, -137438953473
  %214 = or i64 %213, 0
  store i64 %214, ptr %5, align 8
  %215 = load i64, ptr %5, align 8
  %216 = and i64 %215, -274877906945
  %217 = or i64 %216, 0
  store i64 %217, ptr %5, align 8
  %218 = load i64, ptr %5, align 8
  %219 = and i64 %218, -549755813889
  %220 = or i64 %219, 0
  store i64 %220, ptr %5, align 8
  %221 = load i64, ptr %5, align 8
  %222 = and i64 %221, -1099511627777
  %223 = or i64 %222, 1099511627776
  store i64 %223, ptr %5, align 8
  %224 = load i64, ptr %5, align 8
  %225 = and i64 %224, -2199023255553
  %226 = or i64 %225, 2199023255552
  store i64 %226, ptr %5, align 8
  %227 = load i64, ptr %5, align 8
  %228 = and i64 %227, -4398046511105
  %229 = or i64 %228, 0
  store i64 %229, ptr %5, align 8
  %230 = load i64, ptr %5, align 8
  %231 = and i64 %230, -8796093022209
  %232 = or i64 %231, 0
  store i64 %232, ptr %5, align 8
  %233 = load i64, ptr %5, align 8
  %234 = and i64 %233, -17592186044417
  %235 = or i64 %234, 17592186044416
  store i64 %235, ptr %5, align 8
  %236 = load i64, ptr %5, align 8
  %237 = and i64 %236, -35184372088833
  %238 = or i64 %237, 35184372088832
  store i64 %238, ptr %5, align 8
  %239 = load ptr, ptr %4, align 8
  %240 = getelementptr inbounds nuw %"class.clang::LangOptionsBase", ptr %239, i32 0, i32 11
  %241 = load i64, ptr %240, align 8
  %242 = lshr i64 %241, 9
  %243 = and i64 %242, 1
  %244 = trunc i64 %243 to i32
  %245 = zext i32 %244 to i64
  %246 = load i64, ptr %5, align 8
  %247 = and i64 %245, 1
  %248 = shl i64 %247, 46
  %249 = and i64 %246, -70368744177665
  %250 = or i64 %249, %248
  store i64 %250, ptr %5, align 8
  %251 = getelementptr inbounds nuw %"struct.clang::PrintingPolicy", ptr %5, i32 0, i32 1
  store ptr null, ptr %251, align 8
  ret void
}

; Function Attrs: mustprogress nounwind uwtable
define dso_local void @_ZNK5clang19NestedNameSpecifier4dumpERN4llvm11raw_ostreamERKNS_11LangOptionsE(ptr noundef nonnull align 8 dereferenceable(24) %0, ptr noundef nonnull align 8 dereferenceable(48) %1, ptr noundef nonnull align 8 dereferenceable(841) %2) #0 align 2 {
  %4 = alloca ptr, align 8
  %5 = alloca ptr, align 8
  %6 = alloca ptr, align 8
  %7 = alloca %"struct.clang::PrintingPolicy", align 8
  store ptr %0, ptr %4, align 8
  store ptr %1, ptr %5, align 8
  store ptr %2, ptr %6, align 8
  %8 = load ptr, ptr %4, align 8
  %9 = load ptr, ptr %5, align 8
  %10 = load ptr, ptr %6, align 8
  call void @_ZN5clang14PrintingPolicyC2ERKNS_11LangOptionsE(ptr noundef nonnull align 8 dereferenceable(16) %7, ptr noundef nonnull align 8 dereferenceable(841) %10)
  call void @_ZNK5clang19NestedNameSpecifier5printERN4llvm11raw_ostreamERKNS_14PrintingPolicyEb(ptr noundef nonnull align 8 dereferenceable(24) %8, ptr noundef nonnull align 8 dereferenceable(48) %9, ptr noundef nonnull align 8 dereferenceable(16) %7, i1 noundef zeroext false)
  ret void
}

; Function Attrs: mustprogress nounwind uwtable
define dso_local void @_ZNK5clang19NestedNameSpecifier4dumpERN4llvm11raw_ostreamE(ptr noundef nonnull align 8 dereferenceable(24) %0, ptr noundef nonnull align 8 dereferenceable(48) %1) #0 align 2 {
  %3 = alloca ptr, align 8
  %4 = alloca ptr, align 8
  %5 = alloca %"class.clang::LangOptions", align 8
  store ptr %0, ptr %3, align 8
  store ptr %1, ptr %4, align 8
  %6 = load ptr, ptr %3, align 8
  call void @_ZN5clang11LangOptionsC1Ev(ptr noundef nonnull align 8 dereferenceable(841) %5)
  %7 = load ptr, ptr %4, align 8
  call void @_ZNK5clang19NestedNameSpecifier4dumpERN4llvm11raw_ostreamERKNS_11LangOptionsE(ptr noundef nonnull align 8 dereferenceable(24) %6, ptr noundef nonnull align 8 dereferenceable(48) %7, ptr noundef nonnull align 8 dereferenceable(841) %5)
  call void @_ZN5clang11LangOptionsD2Ev(ptr noundef nonnull align 8 dereferenceable(841) %5) #11
  ret void
}