; Function Attrs: mustprogress nounwind uwtable
define dso_local void @_ZNK5clang19NestedNameSpecifier4dumpERN4llvm11raw_ostreamE(ptr nocapture noundef nonnull readonly align 8 dereferenceable(24) %0, ptr noundef nonnull align 8 dereferenceable(48) %1) local_unnamed_addr #0 align 2 {
  %3 = alloca %"struct.clang::PrintingPolicy", align 8
  %4 = alloca %"class.clang::LangOptions", align 8
  call void @_ZN5clang11LangOptionsC1Ev(ptr noundef nonnull align 8 dereferenceable(841) %4) #16
  call void @llvm.lifetime.start.p0(i64 16, ptr nonnull %3)
  %5 = load i64, ptr %4, align 8
  %6 = lshr i64 %5, 2
  %7 = and i64 %6, 512
  %8 = lshr i64 %5, 4
  %9 = and i64 %8, 4194304
  %10 = and i64 %5, 4096
  %.not.i.i = icmp eq i64 %10, 0
  %11 = shl i64 %5, 20
  %12 = and i64 %11, 8388608
  %13 = select i1 %.not.i.i, i64 %12, i64 8388608
  %14 = shl i64 %5, 13
  %15 = and i64 %14, 16777216
  %16 = shl i64 %5, 25
  %17 = and i64 %16, 33554432
  %18 = shl i64 %5, 14
  %19 = and i64 %18, 67108864
  %20 = shl i64 %5, 26
  %21 = and i64 %20, 134217728
  %22 = shl i64 %5, 17
  %23 = and i64 %22, 805306368
  %24 = shl i64 %5, 5
  %25 = and i64 %24, 4294967296
  %26 = and i64 %5, 128
  %.not17.i.i = icmp eq i64 %26, 0
  %27 = and i64 %24, 8589934592
  %28 = xor i64 %27, 56100862820352
  %29 = select i1 %.not17.i.i, i64 56092272885760, i64 %28
  %30 = or disjoint i64 %7, %9
  %31 = or disjoint i64 %30, %15
  %32 = or disjoint i64 %31, %17
  %33 = or disjoint i64 %32, %19
  %.masked.masked.masked.masked.masked.masked.i = or disjoint i64 %33, %21
  %34 = getelementptr inbounds nuw i8, ptr %4, i64 88
  %35 = load i64, ptr %34, align 8
  %36 = shl i64 %35, 37
  %37 = and i64 %36, 70368744177664
  %.masked4.masked.masked.masked.masked.masked.masked.masked.i = or i64 %.masked.masked.masked.masked.masked.masked.i, %23
  %.masked.masked.masked.masked.masked.masked9.masked.i = or i64 %.masked4.masked.masked.masked.masked.masked.masked.masked.i, %25
  %.masked7.masked.masked.masked.masked.masked.i = or i64 %.masked.masked.masked.masked.masked.masked9.masked.i, %13
  %38 = or i64 %.masked7.masked.masked.masked.masked.masked.i, %37
  %39 = or i64 %38, %29
  %40 = xor i64 %39, 807542786
  store i64 %40, ptr %3, align 8
  %41 = getelementptr inbounds nuw i8, ptr %3, i64 8
  store ptr null, ptr %41, align 8
  call void @_ZNK5clang19NestedNameSpecifier5printERN4llvm11raw_ostreamERKNS_14PrintingPolicyEb(ptr noundef nonnull readonly align 8 dereferenceable(24) %0, ptr noundef nonnull align 8 dereferenceable(48) %1, ptr noundef nonnull align 8 dereferenceable(16) %3, i1 noundef zeroext false)
  call void @llvm.lifetime.end.p0(i64 16, ptr nonnull %3)
  call void @_ZN5clang11LangOptionsD2Ev(ptr noundef nonnull align 8 dereferenceable(841) %4) #16
  ret void
}